target datalayout = "e-m:e-p270:32:32-p271:32:32-p272:64:64-i64:64-i128:128-f80:128-n8:16:32:64-S128"
target triple = "x86_64-pc-linux-gnu"

%struct._generic_SUNAdaptController = type { ptr, ptr, ptr }
%struct._SUNAdaptControllerContent_Soderlind = type { double, double, double, double, double, double, double, double, double, double, i32 }

; Function Attrs: nounwind uwtable
define i32 @SUNAdaptController_EstimateStep_Soderlind(ptr noundef %0, double noundef %1, i32 noundef %2, double noundef %3, ptr noundef %4) #0 {
  %6 = alloca ptr, align 8
  %7 = alloca double, align 8
  %8 = alloca i32, align 4
  %9 = alloca double, align 8
  %10 = alloca ptr, align 8
  %11 = alloca ptr, align 8
  %12 = alloca i32, align 4
  %13 = alloca double, align 8
  %14 = alloca double, align 8
  %15 = alloca double, align 8
  %16 = alloca double, align 8
  %17 = alloca double, align 8
  %18 = alloca double, align 8
  %19 = alloca double, align 8
  %20 = alloca double, align 8
  %21 = alloca double, align 8
  %22 = alloca double, align 8
  store ptr %0, ptr %6, align 8, !tbaa !8
  store double %1, ptr %7, align 8, !tbaa !25
  store i32 %2, ptr %8, align 4, !tbaa !27
  store double %3, ptr %9, align 8, !tbaa !25
  store ptr %4, ptr %10, align 8, !tbaa !29
  call void @llvm.lifetime.start.p0(i64 8, ptr %11) #5
  %23 = load ptr, ptr %6, align 8, !tbaa !8
  %24 = getelementptr inbounds nuw %struct._generic_SUNAdaptController, ptr %23, i32 0, i32 2
  %25 = load ptr, ptr %24, align 8, !tbaa !31
  store ptr %25, ptr %11, align 8, !tbaa !3
  call void @llvm.lifetime.start.p0(i64 4, ptr %12) #5
  %26 = load i32, ptr %8, align 4, !tbaa !27
  %27 = add nsw i32 %26, 1
  store i32 %27, ptr %12, align 4, !tbaa !27
  call void @llvm.lifetime.start.p0(i64 8, ptr %13) #5
  %28 = load ptr, ptr %6, align 8, !tbaa !8
  %29 = getelementptr inbounds nuw %struct._generic_SUNAdaptController, ptr %28, i32 0, i32 0
  %30 = load ptr, ptr %29, align 8, !tbaa !24
  %31 = getelementptr inbounds nuw %struct._SUNAdaptControllerContent_Soderlind, ptr %30, i32 0, i32 0
  %32 = load double, ptr %31, align 8, !tbaa !32
  %33 = fneg double %32
  %34 = load i32, ptr %12, align 4, !tbaa !27
  %35 = sitofp i32 %34 to double
  %36 = fdiv double %33, %35
  store double %36, ptr %13, align 8, !tbaa !25
  call void @llvm.lifetime.start.p0(i64 8, ptr %14) #5
  %37 = load ptr, ptr %6, align 8, !tbaa !8
  %38 = getelementptr inbounds nuw %struct._generic_SUNAdaptController, ptr %37, i32 0, i32 0
  %39 = load ptr, ptr %38, align 8, !tbaa !24
  %40 = getelementptr inbounds nuw %struct._SUNAdaptControllerContent_Soderlind, ptr %39, i32 0, i32 1
  %41 = load double, ptr %40, align 8, !tbaa !34
  %42 = fneg double %41
  %43 = load i32, ptr %12, align 4, !tbaa !27
  %44 = sitofp i32 %43 to double
  %45 = fdiv double %42, %44
  store double %45, ptr %14, align 8, !tbaa !25
  call void @llvm.lifetime.start.p0(i64 8, ptr %15) #5
  %46 = load ptr, ptr %6, align 8, !tbaa !8
  %47 = getelementptr inbounds nuw %struct._generic_SUNAdaptController, ptr %46, i32 0, i32 0
  %48 = load ptr, ptr %47, align 8, !tbaa !24
  %49 = getelementptr inbounds nuw %struct._SUNAdaptControllerContent_Soderlind, ptr %48, i32 0, i32 2
  %50 = load double, ptr %49, align 8, !tbaa !35
  %51 = fneg double %50
  %52 = load i32, ptr %12, align 4, !tbaa !27
  %53 = sitofp i32 %52 to double
  %54 = fdiv double %51, %53
  store double %54, ptr %15, align 8, !tbaa !25
  call void @llvm.lifetime.start.p0(i64 8, ptr %16) #5
  %55 = load ptr, ptr %6, align 8, !tbaa !8
  %56 = getelementptr inbounds nuw %struct._generic_SUNAdaptController, ptr %55, i32 0, i32 0
  %57 = load ptr, ptr %56, align 8, !tbaa !24
  %58 = getelementptr inbounds nuw %struct._SUNAdaptControllerContent_Soderlind, ptr %57, i32 0, i32 3
  %59 = load double, ptr %58, align 8, !tbaa !36
  store double %59, ptr %16, align 8, !tbaa !25
  call void @llvm.lifetime.start.p0(i64 8, ptr %17) #5
  %60 = load ptr, ptr %6, align 8, !tbaa !8
  %61 = getelementptr inbounds nuw %struct._generic_SUNAdaptController, ptr %60, i32 0, i32 0
  %62 = load ptr, ptr %61, align 8, !tbaa !24
  %63 = getelementptr inbounds nuw %struct._SUNAdaptControllerContent_Soderlind, ptr %62, i32 0, i32 4
  %64 = load double, ptr %63, align 8, !tbaa !37
  store double %64, ptr %17, align 8, !tbaa !25
  call void @llvm.lifetime.start.p0(i64 8, ptr %18) #5
  %65 = load ptr, ptr %6, align 8, !tbaa !8
  %66 = getelementptr inbounds nuw %struct._generic_SUNAdaptController, ptr %65, i32 0, i32 0
  %67 = load ptr, ptr %66, align 8, !tbaa !24
  %68 = getelementptr inbounds nuw %struct._SUNAdaptControllerContent_Soderlind, ptr %67, i32 0, i32 5
  %69 = load double, ptr %68, align 8, !tbaa !38
  %70 = load double, ptr %9, align 8, !tbaa !25
  %71 = fmul double %69, %70
  %72 = fcmp ogt double %71, 1.000000e-10
  br i1 %72, label %73, label %81

73:                                               ; preds = %5
  %74 = load ptr, ptr %6, align 8, !tbaa !8
  %75 = getelementptr inbounds nuw %struct._generic_SUNAdaptController, ptr %74, i32 0, i32 0
  %76 = load ptr, ptr %75, align 8, !tbaa !24
  %77 = getelementptr inbounds nuw %struct._SUNAdaptControllerContent_Soderlind, ptr %76, i32 0, i32 5
  %78 = load double, ptr %77, align 8, !tbaa !38
  %79 = load double, ptr %9, align 8, !tbaa !25
  %80 = fmul double %78, %79
  br label %82

81:                                               ; preds = %5
  br label %82

82:                                               ; preds = %81, %73
  %83 = phi double [ %80, %73 ], [ 1.000000e-10, %81 ]
  store double %83, ptr %18, align 8, !tbaa !25
  call void @llvm.lifetime.start.p0(i64 8, ptr %19) #5
  %84 = load ptr, ptr %6, align 8, !tbaa !8
  %85 = getelementptr inbounds nuw %struct._generic_SUNAdaptController, ptr %84, i32 0, i32 0
  %86 = load ptr, ptr %85, align 8, !tbaa !24
  %87 = getelementptr inbounds nuw %struct._SUNAdaptControllerContent_Soderlind, ptr %86, i32 0, i32 6
  %88 = load double, ptr %87, align 8, !tbaa !39
  %89 = fcmp ogt double %88, 1.000000e-10
  br i1 %89, label %90, label %96

90:                                               ; preds = %82
  %91 = load ptr, ptr %6, align 8, !tbaa !8
  %92 = getelementptr inbounds nuw %struct._generic_SUNAdaptController, ptr %91, i32 0, i32 0
  %93 = load ptr, ptr %92, align 8, !tbaa !24
  %94 = getelementptr inbounds nuw %struct._SUNAdaptControllerContent_Soderlind, ptr %93, i32 0, i32 6
  %95 = load double, ptr %94, align 8, !tbaa !39
  br label %97

96:                                               ; preds = %82
  br label %97

97:                                               ; preds = %96, %90
  %98 = phi double [ %95, %90 ], [ 1.000000e-10, %96 ]
  store double %98, ptr %19, align 8, !tbaa !25
  call void @llvm.lifetime.start.p0(i64 8, ptr %20) #5
  %99 = load ptr, ptr %6, align 8, !tbaa !8
  %100 = getelementptr inbounds nuw %struct._generic_SUNAdaptController, ptr %99, i32 0, i32 0
  %101 = load ptr, ptr %100, align 8, !tbaa !24
  %102 = getelementptr inbounds nuw %struct._SUNAdaptControllerContent_Soderlind, ptr %101, i32 0, i32 7
  %103 = load double, ptr %102, align 8, !tbaa !40
  %104 = fcmp ogt double %103, 1.000000e-10
  br i1 %104, label %105, label %111

105:                                              ; preds = %97
  %106 = load ptr, ptr %6, align 8, !tbaa !8
  %107 = getelementptr inbounds nuw %struct._generic_SUNAdaptController, ptr %106, i32 0, i32 0
  %108 = load ptr, ptr %107, align 8, !tbaa !24
  %109 = getelementptr inbounds nuw %struct._SUNAdaptControllerContent_Soderlind, ptr %108, i32 0, i32 7
  %110 = load double, ptr %109, align 8, !tbaa !40
  br label %112

111:                                              ; preds = %97
  br label %112

112:                                              ; preds = %111, %105
  %113 = phi double [ %110, %105 ], [ 1.000000e-10, %111 ]
  store double %113, ptr %20, align 8, !tbaa !25
  call void @llvm.lifetime.start.p0(i64 8, ptr %21) #5
  %114 = load double, ptr %7, align 8, !tbaa !25
  %115 = load ptr, ptr %6, align 8, !tbaa !8
  %116 = getelementptr inbounds nuw %struct._generic_SUNAdaptController, ptr %115, i32 0, i32 0
  %117 = load ptr, ptr %116, align 8, !tbaa !24
  %118 = getelementptr inbounds nuw %struct._SUNAdaptControllerContent_Soderlind, ptr %117, i32 0, i32 8
  %119 = load double, ptr %118, align 8, !tbaa !41
  %120 = fdiv double %114, %119
  store double %120, ptr %21, align 8, !tbaa !25
  call void @llvm.lifetime.start.p0(i64 8, ptr %22) #5
  %121 = load ptr, ptr %6, align 8, !tbaa !8
  %122 = getelementptr inbounds nuw %struct._generic_SUNAdaptController, ptr %121, i32 0, i32 0
  %123 = load ptr, ptr %122, align 8, !tbaa !24
  %124 = getelementptr inbounds nuw %struct._SUNAdaptControllerContent_Soderlind, ptr %123, i32 0, i32 8
  %125 = load double, ptr %124, align 8, !tbaa !41
  %126 = load ptr, ptr %6, align 8, !tbaa !8
  %127 = getelementptr inbounds nuw %struct._generic_SUNAdaptController, ptr %126, i32 0, i32 0
  %128 = load ptr, ptr %127, align 8, !tbaa !24
  %129 = getelementptr inbounds nuw %struct._SUNAdaptControllerContent_Soderlind, ptr %128, i32 0, i32 9
  %130 = load double, ptr %129, align 8, !tbaa !42
  %131 = fdiv double %125, %130
  store double %131, ptr %22, align 8, !tbaa !25
  %132 = load ptr, ptr %6, align 8, !tbaa !8
  %133 = getelementptr inbounds nuw %struct._generic_SUNAdaptController, ptr %132, i32 0, i32 0
  %134 = load ptr, ptr %133, align 8, !tbaa !24
  %135 = getelementptr inbounds nuw %struct._SUNAdaptControllerContent_Soderlind, ptr %134, i32 0, i32 10
  %136 = load i32, ptr %135, align 8, !tbaa !43
  %137 = icmp slt i32 %136, 1
  br i1 %137, label %138, label %145

138:                                              ; preds = %112
  %139 = load double, ptr %7, align 8, !tbaa !25
  %140 = load double, ptr %18, align 8, !tbaa !25
  %141 = load double, ptr %13, align 8, !tbaa !25
  %142 = call double @SUNRpowerR(double noundef %140, double noundef %141)
  %143 = fmul double %139, %142
  %144 = load ptr, ptr %10, align 8, !tbaa !29
  store double %143, ptr %144, align 8, !tbaa !25
  br label %191

145:                                              ; preds = %112
  %146 = load ptr, ptr %6, align 8, !tbaa !8
  %147 = getelementptr inbounds nuw %struct._generic_SUNAdaptController, ptr %146, i32 0, i32 0
  %148 = load ptr, ptr %147, align 8, !tbaa !24
  %149 = getelementptr inbounds nuw %struct._SUNAdaptControllerContent_Soderlind, ptr %148, i32 0, i32 10
  %150 = load i32, ptr %149, align 8, !tbaa !43
  %151 = icmp slt i32 %150, 2
  br i1 %151, label %152, label %167

152:                                              ; preds = %145
  %153 = load double, ptr %7, align 8, !tbaa !25
  %154 = load double, ptr %18, align 8, !tbaa !25
  %155 = load double, ptr %13, align 8, !tbaa !25
  %156 = call double @SUNRpowerR(double noundef %154, double noundef %155)
  %157 = fmul double %153, %156
  %158 = load double, ptr %19, align 8, !tbaa !25
  %159 = load double, ptr %14, align 8, !tbaa !25
  %160 = call double @SUNRpowerR(double noundef %158, double noundef %159)
  %161 = fmul double %157, %160
  %162 = load double, ptr %21, align 8, !tbaa !25
  %163 = load double, ptr %16, align 8, !tbaa !25
  %164 = call double @SUNRpowerR(double noundef %162, double noundef %163)
  %165 = fmul double %161, %164
  %166 = load ptr, ptr %10, align 8, !tbaa !29
  store double %165, ptr %166, align 8, !tbaa !25
  br label %190

167:                                              ; preds = %145
  %168 = load double, ptr %7, align 8, !tbaa !25
  %169 = load double, ptr %18, align 8, !tbaa !25
  %170 = load double, ptr %13, align 8, !tbaa !25
  %171 = call double @SUNRpowerR(double noundef %169, double noundef %170)
  %172 = fmul double %168, %171
  %173 = load double, ptr %19, align 8, !tbaa !25
  %174 = load double, ptr %14, align 8, !tbaa !25
  %175 = call double @SUNRpowerR(double noundef %173, double noundef %174)
  %176 = fmul double %172, %175
  %177 = load double, ptr %20, align 8, !tbaa !25
  %178 = load double, ptr %15, align 8, !tbaa !25
  %179 = call double @SUNRpowerR(double noundef %177, double noundef %178)
  %180 = fmul double %176, %179
  %181 = load double, ptr %21, align 8, !tbaa !25
  %182 = load double, ptr %16, align 8, !tbaa !25
  %183 = call double @SUNRpowerR(double noundef %181, double noundef %182)
  %184 = fmul double %180, %183
  %185 = load double, ptr %22, align 8, !tbaa !25
  %186 = load double, ptr %17, align 8, !tbaa !25
  %187 = call double @SUNRpowerR(double noundef %185, double noundef %186)
  %188 = fmul double %184, %187
  %189 = load ptr, ptr %10, align 8, !tbaa !29
  store double %188, ptr %189, align 8, !tbaa !25
  br label %190

190:                                              ; preds = %167, %152
  br label %191

191:                                              ; preds = %190, %138
  call void @llvm.lifetime.end.p0(i64 8, ptr %22) #5
  call void @llvm.lifetime.end.p0(i64 8, ptr %21) #5
  call void @llvm.lifetime.end.p0(i64 8, ptr %20) #5
  call void @llvm.lifetime.end.p0(i64 8, ptr %19) #5
  call void @llvm.lifetime.end.p0(i64 8, ptr %18) #5
  call void @llvm.lifetime.end.p0(i64 8, ptr %17) #5
  call void @llvm.lifetime.end.p0(i64 8, ptr %16) #5
  call void @llvm.lifetime.end.p0(i64 8, ptr %15) #5
  call void @llvm.lifetime.end.p0(i64 8, ptr %14) #5
  call void @llvm.lifetime.end.p0(i64 8, ptr %13) #5
  call void @llvm.lifetime.end.p0(i64 4, ptr %12) #5
  call void @llvm.lifetime.end.p0(i64 8, ptr %11) #5
  ret i32 0
}