; Function Attrs: nounwind uwtable
define noundef i32 @SUNAdaptController_EstimateStep_Soderlind(ptr noundef readonly captures(none) %0, double noundef %1, i32 noundef %2, double noundef %3, ptr noundef writeonly captures(none) initializes((0, 8)) %4) #0 {
  %6 = add nsw i32 %2, 1
  %7 = load ptr, ptr %0, align 8, !tbaa !19
  %8 = load double, ptr %7, align 8, !tbaa !20
  %9 = fneg double %8
  %10 = sitofp i32 %6 to double
  %11 = fdiv double %9, %10
  %12 = getelementptr inbounds nuw i8, ptr %7, i64 16
  %13 = load double, ptr %12, align 8, !tbaa !25
  %14 = fneg double %13
  %15 = fdiv double %14, %10
  %16 = getelementptr inbounds nuw i8, ptr %7, i64 24
  %17 = load double, ptr %16, align 8, !tbaa !26
  %18 = getelementptr inbounds nuw i8, ptr %7, i64 32
  %19 = load double, ptr %18, align 8, !tbaa !27
  %20 = getelementptr inbounds nuw i8, ptr %7, i64 40
  %21 = load double, ptr %20, align 8, !tbaa !28
  %22 = fmul double %3, %21
  %23 = fcmp ogt double %22, 1.000000e-10
  %24 = select i1 %23, double %22, double 1.000000e-10
  %25 = getelementptr inbounds nuw i8, ptr %7, i64 56
  %26 = load double, ptr %25, align 8, !tbaa !30
  %27 = fcmp ogt double %26, 1.000000e-10
  %28 = select i1 %27, double %26, double 1.000000e-10
  %29 = getelementptr inbounds nuw i8, ptr %7, i64 64
  %30 = load double, ptr %29, align 8, !tbaa !31
  %31 = fdiv double %1, %30
  %32 = getelementptr inbounds nuw i8, ptr %7, i64 72
  %33 = load double, ptr %32, align 8, !tbaa !32
  %34 = fdiv double %30, %33
  %35 = getelementptr inbounds nuw i8, ptr %7, i64 80
  %36 = load i32, ptr %35, align 8, !tbaa !33
  %37 = icmp slt i32 %36, 1
  br i1 %37, label %38, label %41

38:                                               ; preds = %5
  %39 = tail call double @SUNRpowerR(double noundef %24, double noundef %11) #11
  %40 = fmul double %1, %39
  br label %65

41:                                               ; preds = %5
  %42 = getelementptr inbounds nuw i8, ptr %7, i64 48
  %43 = load double, ptr %42, align 8, !tbaa !29
  %44 = fcmp ogt double %43, 1.000000e-10
  %45 = select i1 %44, double %43, double 1.000000e-10
  %46 = getelementptr inbounds nuw i8, ptr %7, i64 8
  %47 = load double, ptr %46, align 8, !tbaa !24
  %48 = fneg double %47
  %49 = fdiv double %48, %10
  %50 = icmp eq i32 %36, 1
  %51 = tail call double @SUNRpowerR(double noundef %24, double noundef %11) #11
  %52 = fmul double %1, %51
  %53 = tail call double @SUNRpowerR(double noundef %45, double noundef %49) #11
  %54 = fmul double %52, %53
  br i1 %50, label %55, label %58

55:                                               ; preds = %41
  %56 = tail call double @SUNRpowerR(double noundef %31, double noundef %17) #11
  %57 = fmul double %54, %56
  br label %65

58:                                               ; preds = %41
  %59 = tail call double @SUNRpowerR(double noundef %28, double noundef %15) #11
  %60 = fmul double %54, %59
  %61 = tail call double @SUNRpowerR(double noundef %31, double noundef %17) #11
  %62 = fmul double %60, %61
  %63 = tail call double @SUNRpowerR(double noundef %34, double noundef %19) #11
  %64 = fmul double %62, %63
  br label %65

65:                                               ; preds = %55, %58, %38
  %.sink = phi double [ %57, %55 ], [ %64, %58 ], [ %40, %38 ]
  store double %.sink, ptr %4, align 8, !tbaa !34
  ret i32 0
}